(dp1
S'failed'
p2
(lp3
sS'source_names'
p4
(lp5
S'.'
aS'test_evalueate_feature'
p6
asS'ids'
p7
(dp8
I1
(S'/home/kimitake/Work/mimic2_tools/clinical_db/test_algorithms.py'
S'test_algorithms'
p9
S'TestSequenceFunctions.test_auto_encoder'
tp10
sI2
(S'/home/kimitake/Work/mimic2_tools/clinical_db/test_algorithms.py'
g9
S'TestSequenceFunctions.test_classification'
tp11
sI3
(S'/home/kimitake/Work/mimic2_tools/clinical_db/test_control_mimic2db.py'
S'test_control_mimic2db'
S'TestSequenceFunctions.test_patient_class'
tp12
sI4
(S'/home/kimitake/Work/mimic2_tools/clinical_db/test_scripts.py'
S'test_scripts'
p13
S'TestSequenceFunctions.test_analyze_icd9'
tp14
sI5
(S'/home/kimitake/Work/mimic2_tools/clinical_db/test_scripts.py'
g13
S'TestSequenceFunctions.test_classification'
tp15
sI6
(S'/home/kimitake/Work/mimic2_tools/clinical_db/test_scripts.py'
g13
S'TestSequenceFunctions.test_evaluate_feature'
tp16
sI7
(S'/home/kimitake/Work/mimic2_tools/clinical_db/test_scripts.py'
g13
S'TestSequenceFunctions.test_generate_id_list'
tp17
sI8
(S'/home/kimitake/Work/mimic2_tools/clinical_db/test_scripts.py'
g13
S'TestSequenceFunctions.test_icu_admission_info'
tp18
sI9
(S'/home/kimitake/Work/mimic2_tools/clinical_db/test_scripts.py'
g13
S'TestSequenceFunctions.test_list_id_from_code'
tp19
sI10
(S'/home/kimitake/Work/mimic2_tools/clinical_db/test_scripts.py'
g13
S'TestSequenceFunctions.test_show_medical_record'
tp20
sI11
(Ng6
Ntp21
ss.